target datalayout = "e-m:e-p270:32:32-p271:32:32-p272:64:64-i64:64-i128:128-f80:128-n8:16:32:64-S128"
target triple = "x86_64-pc-linux-gnu"

@ff_mpa_enwindow = external hidden constant [257 x i32], align 16

; Function Attrs: cold nounwind optsize uwtable
define internal void @mpa_synth_init(ptr noundef %0) #4 {
  %2 = alloca ptr, align 8
  %3 = alloca i32, align 4
  %4 = alloca i32, align 4
  %5 = alloca i32, align 4
  store ptr %0, ptr %2, align 8, !tbaa !4
  call void @llvm.lifetime.start.p0(i64 4, ptr %3) #8
  call void @llvm.lifetime.start.p0(i64 4, ptr %4) #8
  store i32 0, ptr %3, align 4, !tbaa !13
  br label %6

6:                                                ; preds = %36, %1
  %7 = load i32, ptr %3, align 4, !tbaa !13
  %8 = icmp slt i32 %7, 257
  br i1 %8, label %9, label %39

9:                                                ; preds = %6
  call void @llvm.lifetime.start.p0(i64 4, ptr %5) #8
  %10 = load i32, ptr %3, align 4, !tbaa !13
  %11 = sext i32 %10 to i64
  %12 = getelementptr inbounds [257 x i32], ptr @ff_mpa_enwindow, i64 0, i64 %11
  %13 = load i32, ptr %12, align 4, !tbaa !13
  store i32 %13, ptr %5, align 4, !tbaa !13
  %14 = load i32, ptr %5, align 4, !tbaa !13
  %15 = load ptr, ptr %2, align 8, !tbaa !4
  %16 = load i32, ptr %3, align 4, !tbaa !13
  %17 = sext i32 %16 to i64
  %18 = getelementptr inbounds i32, ptr %15, i64 %17
  store i32 %14, ptr %18, align 4, !tbaa !13
  %19 = load i32, ptr %3, align 4, !tbaa !13
  %20 = and i32 %19, 63
  %21 = icmp ne i32 %20, 0
  br i1 %21, label %22, label %25

22:                                               ; preds = %9
  %23 = load i32, ptr %5, align 4, !tbaa !13
  %24 = sub nsw i32 0, %23
  store i32 %24, ptr %5, align 4, !tbaa !13
  br label %25

25:                                               ; preds = %22, %9
  %26 = load i32, ptr %3, align 4, !tbaa !13
  %27 = icmp ne i32 %26, 0
  br i1 %27, label %28, label %35

28:                                               ; preds = %25
  %29 = load i32, ptr %5, align 4, !tbaa !13
  %30 = load ptr, ptr %2, align 8, !tbaa !4
  %31 = load i32, ptr %3, align 4, !tbaa !13
  %32 = sub nsw i32 512, %31
  %33 = sext i32 %32 to i64
  %34 = getelementptr inbounds i32, ptr %30, i64 %33
  store i32 %29, ptr %34, align 4, !tbaa !13
  br label %35

35:                                               ; preds = %28, %25
  call void @llvm.lifetime.end.p0(i64 4, ptr %5) #8
  br label %36

36:                                               ; preds = %35
  %37 = load i32, ptr %3, align 4, !tbaa !13
  %38 = add nsw i32 %37, 1
  store i32 %38, ptr %3, align 4, !tbaa !13
  br label %6, !llvm.loop !31

39:                                               ; preds = %6
  store i32 0, ptr %3, align 4, !tbaa !13
  br label %40

40:                                               ; preds = %69, %39
  %41 = load i32, ptr %3, align 4, !tbaa !13
  %42 = icmp slt i32 %41, 8
  br i1 %42, label %43, label %72

43:                                               ; preds = %40
  store i32 0, ptr %4, align 4, !tbaa !13
  br label %44

44:                                               ; preds = %65, %43
  %45 = load i32, ptr %4, align 4, !tbaa !13
  %46 = icmp slt i32 %45, 16
  br i1 %46, label %47, label %68

47:                                               ; preds = %44
  %48 = load ptr, ptr %2, align 8, !tbaa !4
  %49 = load i32, ptr %3, align 4, !tbaa !13
  %50 = mul nsw i32 64, %49
  %51 = add nsw i32 %50, 32
  %52 = load i32, ptr %4, align 4, !tbaa !13
  %53 = sub nsw i32 %51, %52
  %54 = sext i32 %53 to i64
  %55 = getelementptr inbounds i32, ptr %48, i64 %54
  %56 = load i32, ptr %55, align 4, !tbaa !13
  %57 = load ptr, ptr %2, align 8, !tbaa !4
  %58 = load i32, ptr %3, align 4, !tbaa !13
  %59 = mul nsw i32 16, %58
  %60 = add nsw i32 512, %59
  %61 = load i32, ptr %4, align 4, !tbaa !13
  %62 = add nsw i32 %60, %61
  %63 = sext i32 %62 to i64
  %64 = getelementptr inbounds i32, ptr %57, i64 %63
  store i32 %56, ptr %64, align 4, !tbaa !13
  br label %65

65:                                               ; preds = %47
  %66 = load i32, ptr %4, align 4, !tbaa !13
  %67 = add nsw i32 %66, 1
  store i32 %67, ptr %4, align 4, !tbaa !13
  br label %44, !llvm.loop !32

68:                                               ; preds = %44
  br label %69

69:                                               ; preds = %68
  %70 = load i32, ptr %3, align 4, !tbaa !13
  %71 = add nsw i32 %70, 1
  store i32 %71, ptr %3, align 4, !tbaa !13
  br label %40, !llvm.loop !33

72:                                               ; preds = %40
  store i32 0, ptr %3, align 4, !tbaa !13
  br label %73

73:                                               ; preds = %102, %72
  %74 = load i32, ptr %3, align 4, !tbaa !13
  %75 = icmp slt i32 %74, 8
  br i1 %75, label %76, label %105

76:                                               ; preds = %73
  store i32 0, ptr %4, align 4, !tbaa !13
  br label %77

77:                                               ; preds = %98, %76
  %78 = load i32, ptr %4, align 4, !tbaa !13
  %79 = icmp slt i32 %78, 16
  br i1 %79, label %80, label %101

80:                                               ; preds = %77
  %81 = load ptr, ptr %2, align 8, !tbaa !4
  %82 = load i32, ptr %3, align 4, !tbaa !13
  %83 = mul nsw i32 64, %82
  %84 = add nsw i32 %83, 48
  %85 = load i32, ptr %4, align 4, !tbaa !13
  %86 = sub nsw i32 %84, %85
  %87 = sext i32 %86 to i64
  %88 = getelementptr inbounds i32, ptr %81, i64 %87
  %89 = load i32, ptr %88, align 4, !tbaa !13
  %90 = load ptr, ptr %2, align 8, !tbaa !4
  %91 = load i32, ptr %3, align 4, !tbaa !13
  %92 = mul nsw i32 16, %91
  %93 = add nsw i32 640, %92
  %94 = load i32, ptr %4, align 4, !tbaa !13
  %95 = add nsw i32 %93, %94
  %96 = sext i32 %95 to i64
  %97 = getelementptr inbounds i32, ptr %90, i64 %96
  store i32 %89, ptr %97, align 4, !tbaa !13
  br label %98

98:                                               ; preds = %80
  %99 = load i32, ptr %4, align 4, !tbaa !13
  %100 = add nsw i32 %99, 1
  store i32 %100, ptr %4, align 4, !tbaa !13
  br label %77, !llvm.loop !34

101:                                              ; preds = %77
  br label %102

102:                                              ; preds = %101
  %103 = load i32, ptr %3, align 4, !tbaa !13
  %104 = add nsw i32 %103, 1
  store i32 %104, ptr %3, align 4, !tbaa !13
  br label %73, !llvm.loop !35

105:                                              ; preds = %73
  call void @llvm.lifetime.end.p0(i64 4, ptr %4) #8
  call void @llvm.lifetime.end.p0(i64 4, ptr %3) #8
  ret void
}