; Function Attrs: cold nofree norecurse nosync nounwind optsize memory(readwrite, argmem: none, inaccessiblemem: none) uwtable
define internal fastcc void @mpa_synth_init() unnamed_addr #8 {
  br label %1

1:                                                ; preds = %0, %10
  %indvars.iv = phi i64 [ 0, %0 ], [ %indvars.iv.next, %10 ]
  %2 = getelementptr inbounds nuw [257 x i32], ptr @ff_mpa_enwindow, i64 0, i64 %indvars.iv
  %3 = load i32, ptr %2, align 4, !tbaa !4
  %4 = getelementptr inbounds nuw i32, ptr @ff_mpa_synth_window_fixed, i64 %indvars.iv
  store i32 %3, ptr %4, align 4, !tbaa !4
  %.not34 = icmp eq i64 %indvars.iv, 0
  br i1 %.not34, label %10, label %5

5:                                                ; preds = %1
  %6 = and i64 %indvars.iv, 63
  %.not = icmp eq i64 %6, 0
  %7 = sub nsw i32 0, %3
  %spec.select = select i1 %.not, i32 %3, i32 %7
  %8 = sub nuw nsw i64 512, %indvars.iv
  %9 = getelementptr inbounds nuw i32, ptr @ff_mpa_synth_window_fixed, i64 %8
  store i32 %spec.select, ptr %9, align 4, !tbaa !4
  br label %10

10:                                               ; preds = %5, %1
  %indvars.iv.next = add nuw nsw i64 %indvars.iv, 1
  %exitcond.not = icmp eq i64 %indvars.iv.next, 257
  br i1 %exitcond.not, label %.preheader2, label %1, !llvm.loop !21

.preheader2:                                      ; preds = %10, %17
  %indvars.iv15 = phi i64 [ %indvars.iv.next16, %17 ], [ 0, %10 ]
  %11 = shl nuw nsw i64 %indvars.iv15, 6
  %12 = or disjoint i64 %11, 32
  %gep.idx = shl nuw nsw i64 %indvars.iv15, 6
  %invariant.gep = getelementptr inbounds nuw i8, ptr getelementptr inbounds nuw (i8, ptr @ff_mpa_synth_window_fixed, i64 2048), i64 %gep.idx
  br label %13

13:                                               ; preds = %.preheader2, %13
  %indvars.iv11 = phi i64 [ 0, %.preheader2 ], [ %indvars.iv.next12, %13 ]
  %14 = sub nuw nsw i64 %12, %indvars.iv11
  %15 = getelementptr inbounds nuw i32, ptr @ff_mpa_synth_window_fixed, i64 %14
  %16 = load i32, ptr %15, align 4, !tbaa !4
  %gep27 = getelementptr inbounds nuw i32, ptr %invariant.gep, i64 %indvars.iv11
  store i32 %16, ptr %gep27, align 4, !tbaa !4
  %indvars.iv.next12 = add nuw nsw i64 %indvars.iv11, 1
  %exitcond14.not = icmp eq i64 %indvars.iv.next12, 16
  br i1 %exitcond14.not, label %17, label %13, !llvm.loop !22

17:                                               ; preds = %13
  %indvars.iv.next16 = add nuw nsw i64 %indvars.iv15, 1
  %exitcond18.not = icmp eq i64 %indvars.iv.next16, 8
  br i1 %exitcond18.not, label %.preheader, label %.preheader2, !llvm.loop !23

.preheader:                                       ; preds = %17, %24
  %indvars.iv23 = phi i64 [ %indvars.iv.next24, %24 ], [ 0, %17 ]
  %18 = shl nuw nsw i64 %indvars.iv23, 6
  %19 = or disjoint i64 %18, 48
  %gep7.idx = shl nuw nsw i64 %indvars.iv23, 6
  %invariant.gep28 = getelementptr inbounds nuw i8, ptr getelementptr inbounds nuw (i8, ptr @ff_mpa_synth_window_fixed, i64 2560), i64 %gep7.idx
  br label %20

20:                                               ; preds = %.preheader, %20
  %indvars.iv19 = phi i64 [ 0, %.preheader ], [ %indvars.iv.next20, %20 ]
  %21 = sub nuw nsw i64 %19, %indvars.iv19
  %22 = getelementptr inbounds nuw i32, ptr @ff_mpa_synth_window_fixed, i64 %21
  %23 = load i32, ptr %22, align 4, !tbaa !4
  %gep = getelementptr inbounds nuw i32, ptr %invariant.gep28, i64 %indvars.iv19
  store i32 %23, ptr %gep, align 4, !tbaa !4
  %indvars.iv.next20 = add nuw nsw i64 %indvars.iv19, 1
  %exitcond22.not = icmp eq i64 %indvars.iv.next20, 16
  br i1 %exitcond22.not, label %24, label %20, !llvm.loop !24

24:                                               ; preds = %20
  %indvars.iv.next24 = add nuw nsw i64 %indvars.iv23, 1
  %exitcond26.not = icmp eq i64 %indvars.iv.next24, 8
  br i1 %exitcond26.not, label %25, label %.preheader, !llvm.loop !25

25:                                               ; preds = %24
  ret void
}